target datalayout = "e-m:e-p270:32:32-p271:32:32-p272:64:64-i64:64-i128:128-f80:128-n8:16:32:64-S128"
target triple = "x86_64-pc-linux-gnu"

@hf_afp_pad = internal global i32 0, align 4
@hf_afp_session_token_type = internal global i32 0, align 4
@hf_afp_session_token_len = internal global i32 0, align 4
@hf_afp_session_token_timestamp = internal global i32 0, align 4
@hf_afp_session_token = internal global i32 0, align 4

; Function Attrs: null_pointer_is_valid sspstrong uwtable
define internal i32 @dissect_query_afp_get_session_token(ptr noundef %0, ptr noundef %1, ptr noundef %2, i32 noundef %3) #1 {
  %5 = alloca i32, align 4
  %6 = alloca ptr, align 8
  %7 = alloca ptr, align 8
  %8 = alloca ptr, align 8
  %9 = alloca i32, align 4
  %10 = alloca i16, align 2
  %11 = alloca i32, align 4
  %12 = alloca i32, align 4
  store ptr %0, ptr %6, align 8
  store ptr %1, ptr %7, align 8
  store ptr %2, ptr %8, align 8
  store i32 %3, ptr %9, align 4
  call void @llvm.lifetime.start.p0(i64 2, ptr %10) #8
  call void @llvm.lifetime.start.p0(i64 4, ptr %11) #8
  %13 = load ptr, ptr %8, align 8
  %14 = load i32, ptr @hf_afp_pad, align 4
  %15 = load ptr, ptr %6, align 8
  %16 = load i32, ptr %9, align 4
  %17 = call ptr @proto_tree_add_item(ptr noundef %13, i32 noundef %14, ptr noundef %15, i32 noundef %16, i32 noundef 1, i32 noundef 0)
  %18 = load i32, ptr %9, align 4
  %19 = add i32 %18, 1
  store i32 %19, ptr %9, align 4
  %20 = load ptr, ptr %6, align 8
  %21 = load i32, ptr %9, align 4
  %22 = call zeroext i16 @tvb_get_ntohs(ptr noundef %20, i32 noundef %21)
  store i16 %22, ptr %10, align 2
  %23 = load ptr, ptr %8, align 8
  %24 = load i32, ptr @hf_afp_session_token_type, align 4
  %25 = load ptr, ptr %6, align 8
  %26 = load i32, ptr %9, align 4
  %27 = call ptr @proto_tree_add_item(ptr noundef %23, i32 noundef %24, ptr noundef %25, i32 noundef %26, i32 noundef 2, i32 noundef 0)
  %28 = load i32, ptr %9, align 4
  %29 = add i32 %28, 2
  store i32 %29, ptr %9, align 4
  %30 = load i16, ptr %10, align 2
  %31 = zext i16 %30 to i32
  %32 = icmp eq i32 %31, 0
  br i1 %32, label %37, label %33

33:                                               ; preds = %4
  %34 = load i16, ptr %10, align 2
  %35 = zext i16 %34 to i32
  %36 = icmp eq i32 %35, 8
  br i1 %36, label %37, label %39

37:                                               ; preds = %33, %4
  %38 = load i32, ptr %9, align 4
  store i32 %38, ptr %5, align 4
  store i32 1, ptr %12, align 4
  br label %80

39:                                               ; preds = %33
  %40 = load ptr, ptr %8, align 8
  %41 = load i32, ptr @hf_afp_session_token_len, align 4
  %42 = load ptr, ptr %6, align 8
  %43 = load i32, ptr %9, align 4
  %44 = call ptr @proto_tree_add_item_ret_uint(ptr noundef %40, i32 noundef %41, ptr noundef %42, i32 noundef %43, i32 noundef 4, i32 noundef 0, ptr noundef %11)
  %45 = load i32, ptr %9, align 4
  %46 = add i32 %45, 4
  store i32 %46, ptr %9, align 4
  %47 = load i16, ptr %10, align 2
  %48 = zext i16 %47 to i32
  %49 = icmp eq i32 %48, 3
  br i1 %49, label %54, label %50

50:                                               ; preds = %39
  %51 = load i16, ptr %10, align 2
  %52 = zext i16 %51 to i32
  %53 = icmp eq i32 %52, 4
  br i1 %53, label %54, label %62

54:                                               ; preds = %50, %39
  %55 = load ptr, ptr %8, align 8
  %56 = load i32, ptr @hf_afp_session_token_timestamp, align 4
  %57 = load ptr, ptr %6, align 8
  %58 = load i32, ptr %9, align 4
  %59 = call ptr @proto_tree_add_item(ptr noundef %55, i32 noundef %56, ptr noundef %57, i32 noundef %58, i32 noundef 4, i32 noundef 0)
  %60 = load i32, ptr %9, align 4
  %61 = add i32 %60, 4
  store i32 %61, ptr %9, align 4
  br label %62

62:                                               ; preds = %54, %50
  %63 = load i32, ptr %9, align 4
  %64 = load i32, ptr %11, align 4
  %65 = add i32 %63, %64
  %66 = icmp ugt i32 %65, 2147483647
  br i1 %66, label %67, label %69

67:                                               ; preds = %62
  %68 = load i32, ptr %9, align 4
  store i32 %68, ptr %5, align 4
  store i32 1, ptr %12, align 4
  br label %80

69:                                               ; preds = %62
  %70 = load ptr, ptr %8, align 8
  %71 = load i32, ptr @hf_afp_session_token, align 4
  %72 = load ptr, ptr %6, align 8
  %73 = load i32, ptr %9, align 4
  %74 = load i32, ptr %11, align 4
  %75 = call ptr @proto_tree_add_item(ptr noundef %70, i32 noundef %71, ptr noundef %72, i32 noundef %73, i32 noundef %74, i32 noundef 0)
  %76 = load i32, ptr %11, align 4
  %77 = load i32, ptr %9, align 4
  %78 = add i32 %77, %76
  store i32 %78, ptr %9, align 4
  %79 = load i32, ptr %9, align 4
  store i32 %79, ptr %5, align 4
  store i32 1, ptr %12, align 4
  br label %80

80:                                               ; preds = %69, %67, %37
  call void @llvm.lifetime.end.p0(i64 4, ptr %11) #8
  call void @llvm.lifetime.end.p0(i64 2, ptr %10) #8
  %81 = load i32, ptr %5, align 4
  ret i32 %81
}