; Function Attrs: null_pointer_is_valid sspstrong uwtable
define internal fastcc i32 @dissect_query_afp_get_session_token(ptr noundef %0, ptr noundef %1) unnamed_addr #1 {
  %3 = alloca i32, align 4
  call void @llvm.lifetime.start.p0(i64 4, ptr nonnull %3) #8
  %4 = load i32, ptr @hf_afp_pad, align 4
  %5 = tail call ptr @proto_tree_add_item(ptr noundef %1, i32 noundef %4, ptr noundef %0, i32 noundef 1, i32 noundef 1, i32 noundef 0)
  %6 = tail call zeroext i16 @tvb_get_ntohs(ptr noundef %0, i32 noundef 2)
  %7 = load i32, ptr @hf_afp_session_token_type, align 4
  %8 = tail call ptr @proto_tree_add_item(ptr noundef %1, i32 noundef %7, ptr noundef %0, i32 noundef 2, i32 noundef 2, i32 noundef 0)
  %9 = and i16 %6, -9
  %or.cond = icmp eq i16 %9, 0
  br i1 %or.cond, label %26, label %10

10:                                               ; preds = %2
  %11 = load i32, ptr @hf_afp_session_token_len, align 4
  %12 = call ptr @proto_tree_add_item_ret_uint(ptr noundef %1, i32 noundef %11, ptr noundef %0, i32 noundef 4, i32 noundef 4, i32 noundef 0, ptr noundef nonnull %3)
  %13 = add i16 %6, -3
  %or.cond5 = icmp ult i16 %13, 2
  br i1 %or.cond5, label %14, label %17

14:                                               ; preds = %10
  %15 = load i32, ptr @hf_afp_session_token_timestamp, align 4
  %16 = call ptr @proto_tree_add_item(ptr noundef %1, i32 noundef %15, ptr noundef %0, i32 noundef 8, i32 noundef 4, i32 noundef 0)
  br label %17

17:                                               ; preds = %10, %14
  %.035 = phi i32 [ 12, %14 ], [ 8, %10 ]
  %18 = load i32, ptr %3, align 4
  %19 = add i32 %18, %.035
  %20 = icmp slt i32 %19, 0
  br i1 %20, label %26, label %21

21:                                               ; preds = %17
  %22 = load i32, ptr @hf_afp_session_token, align 4
  %23 = call ptr @proto_tree_add_item(ptr noundef %1, i32 noundef %22, ptr noundef %0, i32 noundef %.035, i32 noundef %18, i32 noundef 0)
  %24 = load i32, ptr %3, align 4
  %25 = add i32 %24, %.035
  br label %26

26:                                               ; preds = %17, %2, %21
  %.0 = phi i32 [ %25, %21 ], [ 4, %2 ], [ %.035, %17 ]
  call void @llvm.lifetime.end.p0(i64 4, ptr nonnull %3) #8
  ret i32 %.0
}